******************************************************************************
                  TI ARM Linker PC v15.12.3                    
******************************************************************************
>> Linked Tue Jan 02 09:36:43 2018

OUTPUT FILE NAME:   <final2016_2.out>
ENTRY POINT SYMBOL: "_c_int00"  address: 00000be5


MEMORY CONFIGURATION

         name            origin    length      used     unused   attr    fill
----------------------  --------  ---------  --------  --------  ----  --------
  FLASH                 00000000   00040000  00001228  0003edd8  R  X
  SRAM                  20000000   00008000  00000499  00007b67  RW X


SEGMENT ALLOCATION MAP

run origin  load origin   length   init length attrs members
----------  ----------- ---------- ----------- ----- -------
00000000    00000000    0000122c   0000122c    r-x
  00000000    00000000    0000026c   0000026c    r-- .intvecs
  0000026c    0000026c    00000d7c   00000d7c    r-x .text
  00000fe8    00000fe8    000001ec   000001ec    r-- .const
  000011d8    000011d8    00000054   00000054    r-- .cinit
20000000    20000000    00000499   00000000    rw-
  20000000    20000000    0000026c   00000000    rw- .vtable
  2000026c    2000026c    00000200   00000000    rw- .stack
  2000046c    2000046c    0000001c   00000000    rw- .data
  20000488    20000488    00000011   00000000    rw- .bss


SECTION ALLOCATION MAP

 output                                  attributes/
section   page    origin      length       input sections
--------  ----  ----------  ----------   ----------------
.intvecs   0    00000000    0000026c     
                  00000000    0000026c     tm4c123gh6pm_startup_ccs.obj (.intvecs)

.text      0    0000026c    00000d7c     
                  0000026c    0000021c     main.obj (.text)
                  00000488    00000132     driverlib.lib : gpio.obj (.text:GPIOPadConfigSet)
                  000005ba    00000002     rtsv7M4_T_le_v4SPD16_eabi.lib : mpu_init.obj (.text)
                  000005bc    00000110     driverlib.lib : sysctl.obj (.text:SysCtlClockGet)
                  000006cc    000000fc     rtsv7M4_T_le_v4SPD16_eabi.lib : fd_mul_t2.obj (.text)
                  000007c8    000000f4     driverlib.lib : sysctl.obj (.text:SysCtlClockSet)
                  000008bc    0000009c     rtsv7M4_T_le_v4SPD16_eabi.lib : memcpy_t2.obj (.text)
                  00000958    0000007a                                   : memset_t2.obj (.text)
                  000009d2    00000002                                   : startup.obj (.text)
                  000009d4    00000070                                   : autoinit.obj (.text)
                  00000a44    0000006e                                   : fd_tos_t2.obj (.text)
                  00000ab2    0000006a                                   : copy_decompress_rle.obj (.text)
                  00000b1c    00000068     driverlib.lib : interrupt.obj (.text:IntEnable)
                  00000b84    00000060                   : timer.obj (.text:TimerConfigure)
                  00000be4    00000054     rtsv7M4_T_le_v4SPD16_eabi.lib : boot.obj (.text)
                  00000c38    00000054                                   : exit.obj (.text)
                  00000c8c    0000004c                                   : cpy_tbl.obj (.text)
                  00000cd8    00000048     driverlib.lib : gpio.obj (.text:GPIOPinConfigure)
                  00000d20    00000046                   : uart.obj (.text:UARTConfigSetExpClk)
                  00000d66    00000002     --HOLE-- [fill = 0]
                  00000d68    00000040                   : uart.obj (.text:_UARTIntNumberGet)
                  00000da8    00000034                   : interrupt.obj (.text:IntRegister)
                  00000ddc    00000034                   : sysctl.obj (.text:SysCtlPeripheralEnable)
                  00000e10    0000002e     rtsv7M4_T_le_v4SPD16_eabi.lib : i_tofd_t2.obj (.text)
                  00000e3e    0000002a     driverlib.lib : gpio.obj (.text:GPIODirModeSet)
                  00000e68    00000020                   : uart.obj (.text:UARTDisable)
                  00000e88    00000018                   : gpio.obj (.text:GPIOPinTypeGPIOOutput)
                  00000ea0    00000018                   : timer.obj (.text:TimerDisable)
                  00000eb8    00000018                   : uart.obj (.text:UARTIntRegister)
                  00000ed0    00000018     rtsv7M4_T_le_v4SPD16_eabi.lib : args_main.obj (.text)
                  00000ee8    00000014     driverlib.lib : uart.obj (.text:UARTEnable)
                  00000efc    00000014     rtsv7M4_T_le_v4SPD16_eabi.lib : _lock.obj (.text)
                  00000f10    00000012     driverlib.lib : gpio.obj (.text:GPIOPinTypeGPIOInput)
                  00000f22    00000012                   : gpio.obj (.text:GPIOPinTypeUART)
                  00000f34    00000012                   : timer.obj (.text:TimerLoadSet)
                  00000f46    00000010                   : interrupt.obj (.text:IntMasterEnable)
                  00000f56    0000000e                   : timer.obj (.text:TimerEnable)
                  00000f64    0000000e                   : uart.obj (.text:UARTCharsAvail)
                  00000f72    0000000e     rtsv7M4_T_le_v4SPD16_eabi.lib : copy_decompress_none.obj (.text:decompress:none)
                  00000f80    0000000c     driverlib.lib : cpu.obj (.text:CPUcpsie)
                  00000f8c    0000000c     tm4c123gh6pm_startup_ccs.obj (.text)
                  00000f98    0000000a     driverlib.lib : timer.obj (.text:TimerValueGet)
                  00000fa2    0000000a                   : uart.obj (.text:UARTCharGet)
                  00000fac    0000000a                   : uart.obj (.text:UARTCharPut)
                  00000fb6    0000000a                   : uart.obj (.text:UARTIntStatus)
                  00000fc0    00000008                   : uart.obj (.text:UARTIntEnable)
                  00000fc8    00000006                   : gpio.obj (.text:GPIOPinRead)
                  00000fce    00000006                   : gpio.obj (.text:GPIOPinWrite)
                  00000fd4    00000006                   : sysctl.obj (.text:SysCtlDelay)
                  00000fda    00000006     rtsv7M4_T_le_v4SPD16_eabi.lib : copy_decompress_rle.obj (.text:decompress:rle24)
                  00000fe0    00000004     driverlib.lib : uart.obj (.text:UARTIntClear)
                  00000fe4    00000004     rtsv7M4_T_le_v4SPD16_eabi.lib : pre_init.obj (.text)

.const     0    00000fe8    000001ec     
                  00000fe8    00000090     driverlib.lib : gpio.obj (.const:g_pui32GPIOBaseAddrs)
                  00001078    00000070                   : interrupt.obj (.const)
                  000010e8    0000006c                   : sysctl.obj (.const:g_pui32Xtals)
                  00001154    00000040                   : uart.obj (.const:g_ppui32UARTIntMap)
                  00001194    00000040                   : uart.obj (.const:g_ppui32UARTIntMapSnowflake)

.cinit     0    000011d8    00000054     
                  000011d8    00000016     (.cinit..data.load) [load image, compression = rle]
                  000011ee    00000002     --HOLE-- [fill = 0]
                  000011f0    0000000b     (.cinit..vtable.load) [load image, compression = rle]
                  000011fb    00000005     --HOLE-- [fill = 0]
                  00001200    00000009     (.cinit..bss.load) [load image, compression = rle]
                  00001209    00000003     --HOLE-- [fill = 0]
                  0000120c    00000008     (__TI_handler_table)
                  00001214    00000018     (__TI_cinit_table)

.init_array 
*          0    00000000    00000000     UNINITIALIZED

.vtable    0    20000000    0000026c     UNINITIALIZED
                  20000000    0000026c     driverlib.lib : interrupt.obj (.vtable)

.stack     0    2000026c    00000200     UNINITIALIZED
                  2000026c    00000200     --HOLE--

.data      0    2000046c    0000001c     UNINITIALIZED
                  2000046c    0000000c     rtsv7M4_T_le_v4SPD16_eabi.lib : exit.obj (.data:$O1$$)
                  20000478    00000008                                   : _lock.obj (.data:$O1$$)
                  20000480    00000004     main.obj (.data)
                  20000484    00000004     rtsv7M4_T_le_v4SPD16_eabi.lib : stkdepth_vars.obj (.data)

.bss       0    20000488    00000011     UNINITIALIZED
                  20000488    00000004     (.common:boyut)
                  2000048c    00000004     (.common:deger)
                  20000490    00000004     (.common:gelenref)
                  20000494    00000004     (.common:ref)
                  20000498    00000001     (.common:gelen)

MODULE SUMMARY

       Module                         code   ro data   rw data
       ------                         ----   -------   -------
    .\
       tm4c123gh6pm_startup_ccs.obj   12     620       0      
       main.obj                       540    0         21     
    +--+------------------------------+------+---------+---------+
       Total:                         552    620       21     
                                                              
    C:/ti/TivaWare_C_Series-2.1.4.178/driverlib/ccs/Debug/driverlib.lib
       interrupt.obj                  172    112       620    
       sysctl.obj                     574    108       0      
       gpio.obj                       492    144       0      
       uart.obj                       266    128       0      
       timer.obj                      162    0         0      
       cpu.obj                        12     0         0      
    +--+------------------------------+------+---------+---------+
       Total:                         1678   492       620    
                                                              
    C:\ti\ccsv6\tools\compiler\arm_15.12.3.LTS\lib\rtsv7M4_T_le_v4SPD16_eabi.lib
       fd_mul_t2.obj                  252    0         0      
       memcpy_t2.obj                  156    0         0      
       memset_t2.obj                  122    0         0      
       autoinit.obj                   112    0         0      
       copy_decompress_rle.obj        112    0         0      
       fd_tos_t2.obj                  110    0         0      
       exit.obj                       84     0         12     
       boot.obj                       84     0         0      
       cpy_tbl.obj                    76     0         0      
       i_tofd_t2.obj                  46     0         0      
       _lock.obj                      20     0         8      
       args_main.obj                  24     0         0      
       copy_decompress_none.obj       14     0         0      
       pre_init.obj                   4      0         0      
       stkdepth_vars.obj              0      0         4      
       mpu_init.obj                   2      0         0      
       startup.obj                    2      0         0      
    +--+------------------------------+------+---------+---------+
       Total:                         1220   0         24     
                                                              
       Stack:                         0      0         512    
       Linker Generated:              0      74        0      
    +--+------------------------------+------+---------+---------+
       Grand Total:                   3450   1186      1177   


LINKER GENERATED COPY TABLES

__TI_cinit_table @ 00001214 records: 3, size/record: 8, table size: 24
	.data: load addr=000011d8, load size=00000016 bytes, run addr=2000046c, run size=0000001c bytes, compression=rle
	.vtable: load addr=000011f0, load size=0000000b bytes, run addr=20000000, run size=0000026c bytes, compression=rle
	.bss: load addr=00001200, load size=00000009 bytes, run addr=20000488, run size=00000011 bytes, compression=rle


LINKER GENERATED HANDLER TABLE

__TI_handler_table @ 0000120c records: 2, size/record: 4, table size: 8
	index: 0, handler: __TI_decompress_rle24
	index: 1, handler: __TI_decompress_none


GLOBAL SYMBOLS: SORTED ALPHABETICALLY BY Name 

address   name                           
-------   ----                           
00000c39  C$$EXIT                        
00000f81  CPUcpsie                       
00000e3f  GPIODirModeSet                 
00000489  GPIOPadConfigSet               
00000cd9  GPIOPinConfigure               
00000fc9  GPIOPinRead                    
00000f11  GPIOPinTypeGPIOInput           
00000e89  GPIOPinTypeGPIOOutput          
00000f23  GPIOPinTypeUART                
00000fcf  GPIOPinWrite                   
00000b1d  IntEnable                      
00000f47  IntMasterEnable                
00000da9  IntRegister                    
00000f8d  ResetISR                       
UNDEFED   SHT$$INIT_ARRAY$$Base          
UNDEFED   SHT$$INIT_ARRAY$$Limit         
000005bd  SysCtlClockGet                 
000007c9  SysCtlClockSet                 
00000fd5  SysCtlDelay                    
00000ddd  SysCtlPeripheralEnable         
00000b85  TimerConfigure                 
00000ea1  TimerDisable                   
00000f57  TimerEnable                    
00000f35  TimerLoadSet                   
00000f99  TimerValueGet                  
00000fa3  UARTCharGet                    
00000fad  UARTCharPut                    
00000f65  UARTCharsAvail                 
00000d21  UARTConfigSetExpClk            
00000e69  UARTDisable                    
00000ee9  UARTEnable                     
00000fe1  UARTIntClear                   
00000fc1  UARTIntEnable                  
00000eb9  UARTIntRegister                
00000fb7  UARTIntStatus                  
2000046c  __STACK_END                    
00000200  __STACK_SIZE                   
2000046c  __STACK_TOP                    
00001214  __TI_CINIT_Base                
0000122c  __TI_CINIT_Limit               
0000120c  __TI_Handler_Table_Base        
00001214  __TI_Handler_Table_Limit       
000009d5  __TI_auto_init                 
2000046c  __TI_cleanup_ptr               
00000f73  __TI_decompress_none           
00000fdb  __TI_decompress_rle24          
20000470  __TI_dtors_ptr                 
20000474  __TI_enable_exit_profile_output
ffffffff  __TI_pprof_out_hndl            
ffffffff  __TI_prof_data_size            
ffffffff  __TI_prof_data_start           
00000000  __TI_static_base__             
00000a45  __aeabi_d2f                    
000006cd  __aeabi_dmul                   
00000e11  __aeabi_i2d                    
00000959  __aeabi_memclr                 
00000959  __aeabi_memclr4                
00000959  __aeabi_memclr8                
000008bd  __aeabi_memcpy                 
000008bd  __aeabi_memcpy4                
000008bd  __aeabi_memcpy8                
0000095b  __aeabi_memset                 
0000095b  __aeabi_memset4                
0000095b  __aeabi_memset8                
ffffffff  __binit__                      
ffffffff  __c_args__                     
000005bb  __mpu_init                     
2000026c  __stack                        
00000ed1  _args_main                     
00000be5  _c_int00                       
20000478  _lock                          
00000f0b  _nop                           
00000f03  _register_lock                 
00000efd  _register_unlock               
000009d3  _system_post_cinit             
00000fe5  _system_pre_init               
2000047c  _unlock                        
00000c3d  abort                          
ffffffff  binit                          
20000488  boyut                          
00000c8d  copy_in                        
2000048c  deger                          
00000c45  exit                           
20000000  g_pfnRAMVectors                
00000000  g_pfnVectors                   
20000498  gelen                          
20000490  gelenref                       
000002fb  main                           
20000484  main_func_sp                   
000008bd  memcpy                         
00000961  memset                         
20000494  ref                            
0000026d  serikesme                      
20000480  x                              


GLOBAL SYMBOLS: SORTED BY Symbol Address 

address   name                           
-------   ----                           
00000000  __TI_static_base__             
00000000  g_pfnVectors                   
00000200  __STACK_SIZE                   
0000026d  serikesme                      
000002fb  main                           
00000489  GPIOPadConfigSet               
000005bb  __mpu_init                     
000005bd  SysCtlClockGet                 
000006cd  __aeabi_dmul                   
000007c9  SysCtlClockSet                 
000008bd  __aeabi_memcpy                 
000008bd  __aeabi_memcpy4                
000008bd  __aeabi_memcpy8                
000008bd  memcpy                         
00000959  __aeabi_memclr                 
00000959  __aeabi_memclr4                
00000959  __aeabi_memclr8                
0000095b  __aeabi_memset                 
0000095b  __aeabi_memset4                
0000095b  __aeabi_memset8                
00000961  memset                         
000009d3  _system_post_cinit             
000009d5  __TI_auto_init                 
00000a45  __aeabi_d2f                    
00000b1d  IntEnable                      
00000b85  TimerConfigure                 
00000be5  _c_int00                       
00000c39  C$$EXIT                        
00000c3d  abort                          
00000c45  exit                           
00000c8d  copy_in                        
00000cd9  GPIOPinConfigure               
00000d21  UARTConfigSetExpClk            
00000da9  IntRegister                    
00000ddd  SysCtlPeripheralEnable         
00000e11  __aeabi_i2d                    
00000e3f  GPIODirModeSet                 
00000e69  UARTDisable                    
00000e89  GPIOPinTypeGPIOOutput          
00000ea1  TimerDisable                   
00000eb9  UARTIntRegister                
00000ed1  _args_main                     
00000ee9  UARTEnable                     
00000efd  _register_unlock               
00000f03  _register_lock                 
00000f0b  _nop                           
00000f11  GPIOPinTypeGPIOInput           
00000f23  GPIOPinTypeUART                
00000f35  TimerLoadSet                   
00000f47  IntMasterEnable                
00000f57  TimerEnable                    
00000f65  UARTCharsAvail                 
00000f73  __TI_decompress_none           
00000f81  CPUcpsie                       
00000f8d  ResetISR                       
00000f99  TimerValueGet                  
00000fa3  UARTCharGet                    
00000fad  UARTCharPut                    
00000fb7  UARTIntStatus                  
00000fc1  UARTIntEnable                  
00000fc9  GPIOPinRead                    
00000fcf  GPIOPinWrite                   
00000fd5  SysCtlDelay                    
00000fdb  __TI_decompress_rle24          
00000fe1  UARTIntClear                   
00000fe5  _system_pre_init               
0000120c  __TI_Handler_Table_Base        
00001214  __TI_CINIT_Base                
00001214  __TI_Handler_Table_Limit       
0000122c  __TI_CINIT_Limit               
20000000  g_pfnRAMVectors                
2000026c  __stack                        
2000046c  __STACK_END                    
2000046c  __STACK_TOP                    
2000046c  __TI_cleanup_ptr               
20000470  __TI_dtors_ptr                 
20000474  __TI_enable_exit_profile_output
20000478  _lock                          
2000047c  _unlock                        
20000480  x                              
20000484  main_func_sp                   
20000488  boyut                          
2000048c  deger                          
20000490  gelenref                       
20000494  ref                            
20000498  gelen                          
ffffffff  __TI_pprof_out_hndl            
ffffffff  __TI_prof_data_size            
ffffffff  __TI_prof_data_start           
ffffffff  __binit__                      
ffffffff  __c_args__                     
ffffffff  binit                          
UNDEFED   SHT$$INIT_ARRAY$$Base          
UNDEFED   SHT$$INIT_ARRAY$$Limit         

[94 symbols]
